target datalayout = "e-m:e-p270:32:32-p271:32:32-p272:64:64-i64:64-i128:128-f80:128-n8:16:32:64-S128"
target triple = "x86_64-pc-linux-gnu"

; Function Attrs: nounwind uwtable
define void @ff_celp_circ_addf(ptr noundef %0, ptr noundef %1, ptr noundef %2, i32 noundef %3, float noundef %4, i32 noundef %5) #0 {
  %7 = alloca ptr, align 8
  %8 = alloca ptr, align 8
  %9 = alloca ptr, align 8
  %10 = alloca i32, align 4
  %11 = alloca float, align 4
  %12 = alloca i32, align 4
  %13 = alloca i32, align 4
  store ptr %0, ptr %7, align 8, !tbaa !17
  store ptr %1, ptr %8, align 8, !tbaa !17
  store ptr %2, ptr %9, align 8, !tbaa !17
  store i32 %3, ptr %10, align 4, !tbaa !9
  store float %4, ptr %11, align 4, !tbaa !19
  store i32 %5, ptr %12, align 4, !tbaa !9
  call void @llvm.lifetime.start.p0(i64 4, ptr %13) #5
  store i32 0, ptr %13, align 4, !tbaa !9
  br label %14

14:                                               ; preds = %39, %6
  %15 = load i32, ptr %13, align 4, !tbaa !9
  %16 = load i32, ptr %10, align 4, !tbaa !9
  %17 = icmp slt i32 %15, %16
  br i1 %17, label %18, label %42

18:                                               ; preds = %14
  %19 = load ptr, ptr %8, align 8, !tbaa !17
  %20 = load i32, ptr %13, align 4, !tbaa !9
  %21 = sext i32 %20 to i64
  %22 = getelementptr inbounds float, ptr %19, i64 %21
  %23 = load float, ptr %22, align 4, !tbaa !19
  %24 = load float, ptr %11, align 4, !tbaa !19
  %25 = load ptr, ptr %9, align 8, !tbaa !17
  %26 = load i32, ptr %12, align 4, !tbaa !9
  %27 = load i32, ptr %13, align 4, !tbaa !9
  %28 = add nsw i32 %26, %27
  %29 = load i32, ptr %10, align 4, !tbaa !9
  %30 = sub nsw i32 %28, %29
  %31 = sext i32 %30 to i64
  %32 = getelementptr inbounds float, ptr %25, i64 %31
  %33 = load float, ptr %32, align 4, !tbaa !19
  %34 = call nsz float @llvm.fmuladd.f32(float %24, float %33, float %23)
  %35 = load ptr, ptr %7, align 8, !tbaa !17
  %36 = load i32, ptr %13, align 4, !tbaa !9
  %37 = sext i32 %36 to i64
  %38 = getelementptr inbounds float, ptr %35, i64 %37
  store float %34, ptr %38, align 4, !tbaa !19
  br label %39

39:                                               ; preds = %18
  %40 = load i32, ptr %13, align 4, !tbaa !9
  %41 = add nsw i32 %40, 1
  store i32 %41, ptr %13, align 4, !tbaa !9
  br label %14, !llvm.loop !21

42:                                               ; preds = %14
  br label %43

43:                                               ; preds = %66, %42
  %44 = load i32, ptr %13, align 4, !tbaa !9
  %45 = load i32, ptr %12, align 4, !tbaa !9
  %46 = icmp slt i32 %44, %45
  br i1 %46, label %47, label %69

47:                                               ; preds = %43
  %48 = load ptr, ptr %8, align 8, !tbaa !17
  %49 = load i32, ptr %13, align 4, !tbaa !9
  %50 = sext i32 %49 to i64
  %51 = getelementptr inbounds float, ptr %48, i64 %50
  %52 = load float, ptr %51, align 4, !tbaa !19
  %53 = load float, ptr %11, align 4, !tbaa !19
  %54 = load ptr, ptr %9, align 8, !tbaa !17
  %55 = load i32, ptr %13, align 4, !tbaa !9
  %56 = load i32, ptr %10, align 4, !tbaa !9
  %57 = sub nsw i32 %55, %56
  %58 = sext i32 %57 to i64
  %59 = getelementptr inbounds float, ptr %54, i64 %58
  %60 = load float, ptr %59, align 4, !tbaa !19
  %61 = call nsz float @llvm.fmuladd.f32(float %53, float %60, float %52)
  %62 = load ptr, ptr %7, align 8, !tbaa !17
  %63 = load i32, ptr %13, align 4, !tbaa !9
  %64 = sext i32 %63 to i64
  %65 = getelementptr inbounds float, ptr %62, i64 %64
  store float %61, ptr %65, align 4, !tbaa !19
  br label %66

66:                                               ; preds = %47
  %67 = load i32, ptr %13, align 4, !tbaa !9
  %68 = add nsw i32 %67, 1
  store i32 %68, ptr %13, align 4, !tbaa !9
  br label %43, !llvm.loop !22

69:                                               ; preds = %43
  call void @llvm.lifetime.end.p0(i64 4, ptr %13) #5
  ret void
}