; Function Attrs: nofree norecurse nosync nounwind memory(argmem: readwrite) uwtable
define void @ff_celp_circ_addf(ptr noundef writeonly captures(none) %0, ptr noundef readonly captures(none) %1, ptr noundef readonly captures(none) %2, i32 noundef %3, float noundef %4, i32 noundef %5) local_unnamed_addr #0 {
  %7 = icmp sgt i32 %3, 0
  br i1 %7, label %.lr.ph, label %.preheader

.lr.ph:                                           ; preds = %6
  %8 = sub i32 %5, %3
  %wide.trip.count = zext nneg i32 %3 to i64
  br label %12

.preheader:                                       ; preds = %12, %6
  %.0.lcssa = phi i32 [ 0, %6 ], [ %3, %12 ]
  %9 = icmp slt i32 %.0.lcssa, %5
  br i1 %9, label %.lr.ph25.preheader, label %._crit_edge

.lr.ph25.preheader:                               ; preds = %.preheader
  %10 = zext nneg i32 %.0.lcssa to i64
  %11 = sext i32 %3 to i64
  %wide.trip.count30 = zext nneg i32 %5 to i64
  br label %.lr.ph25

12:                                               ; preds = %.lr.ph, %12
  %indvars.iv = phi i64 [ 0, %.lr.ph ], [ %indvars.iv.next, %12 ]
  %13 = getelementptr inbounds nuw float, ptr %1, i64 %indvars.iv
  %14 = load float, ptr %13, align 4, !tbaa !12
  %15 = trunc nuw nsw i64 %indvars.iv to i32
  %16 = add i32 %8, %15
  %17 = sext i32 %16 to i64
  %18 = getelementptr inbounds float, ptr %2, i64 %17
  %19 = load float, ptr %18, align 4, !tbaa !12
  %20 = tail call nsz float @llvm.fmuladd.f32(float %4, float %19, float %14)
  %21 = getelementptr inbounds nuw float, ptr %0, i64 %indvars.iv
  store float %20, ptr %21, align 4, !tbaa !12
  %indvars.iv.next = add nuw nsw i64 %indvars.iv, 1
  %exitcond.not = icmp eq i64 %indvars.iv.next, %wide.trip.count
  br i1 %exitcond.not, label %.preheader, label %12, !llvm.loop !14

.lr.ph25:                                         ; preds = %.lr.ph25.preheader, %.lr.ph25
  %indvars.iv27 = phi i64 [ %10, %.lr.ph25.preheader ], [ %indvars.iv.next28, %.lr.ph25 ]
  %22 = getelementptr inbounds nuw float, ptr %1, i64 %indvars.iv27
  %23 = load float, ptr %22, align 4, !tbaa !12
  %24 = sub nsw i64 %indvars.iv27, %11
  %25 = getelementptr inbounds float, ptr %2, i64 %24
  %26 = load float, ptr %25, align 4, !tbaa !12
  %27 = tail call nsz float @llvm.fmuladd.f32(float %4, float %26, float %23)
  %28 = getelementptr inbounds nuw float, ptr %0, i64 %indvars.iv27
  store float %27, ptr %28, align 4, !tbaa !12
  %indvars.iv.next28 = add nuw nsw i64 %indvars.iv27, 1
  %exitcond31.not = icmp eq i64 %indvars.iv.next28, %wide.trip.count30
  br i1 %exitcond31.not, label %._crit_edge, label %.lr.ph25, !llvm.loop !15

._crit_edge:                                      ; preds = %.lr.ph25, %.preheader
  ret void
}